; Function Attrs: mustprogress nofree norecurse nosync nounwind willreturn memory(argmem: read) uwtable
define hidden noundef zeroext i1 @_ZNK19OpenColorIO_v2_4dev10CTFVersioneqERKS0_(ptr noundef nonnull readonly align 4 dereferenceable(12) %this, ptr noundef nonnull readonly align 4 dereferenceable(12) %rhs) local_unnamed_addr #7 align 2 {
entry:
  %cmp = icmp eq ptr %this, %rhs
  br i1 %cmp, label %return, label %if.end

if.end:                                           ; preds = %entry
  %0 = load i32, ptr %this, align 4
  %1 = load i32, ptr %rhs, align 4
  %cmp3 = icmp eq i32 %0, %1
  br i1 %cmp3, label %land.lhs.true, label %return

land.lhs.true:                                    ; preds = %if.end
  %m_minor = getelementptr inbounds i8, ptr %this, i64 4
  %2 = load i32, ptr %m_minor, align 4
  %m_minor4 = getelementptr inbounds i8, ptr %rhs, i64 4
  %3 = load i32, ptr %m_minor4, align 4
  %cmp5 = icmp eq i32 %2, %3
  br i1 %cmp5, label %land.rhs, label %return

land.rhs:                                         ; preds = %land.lhs.true
  %m_revision = getelementptr inbounds i8, ptr %this, i64 8
  %4 = load i32, ptr %m_revision, align 4
  %m_revision6 = getelementptr inbounds i8, ptr %rhs, i64 8
  %5 = load i32, ptr %m_revision6, align 4
  %cmp7 = icmp eq i32 %4, %5
  br label %return

return:                                           ; preds = %if.end, %land.lhs.true, %land.rhs, %entry
  %retval.0 = phi i1 [ true, %entry ], [ false, %land.lhs.true ], [ false, %if.end ], [ %cmp7, %land.rhs ]
  ret i1 %retval.0
}